target datalayout = "e-m:e-p270:32:32-p271:32:32-p272:64:64-i64:64-i128:128-f80:128-n8:16:32:64-S128"
target triple = "x86_64-pc-linux-gnu"

%"class.icu_77::UnicodeString" = type { %"class.icu_77::Replaceable", %"union.icu_77::UnicodeString::StackBufferOrFields" }
%"class.icu_77::Replaceable" = type { %"class.icu_77::UObject" }
%"class.icu_77::UObject" = type { ptr }
%"union.icu_77::UnicodeString::StackBufferOrFields" = type { %struct.anon.0, [32 x i8] }
%struct.anon.0 = type { i16, i32, i32, ptr }
%"class.icu_77::SimpleDateFormat" = type { %"class.icu_77::DateFormat", %"class.icu_77::UnicodeString", %"class.icu_77::UnicodeString", %"class.icu_77::UnicodeString", %"class.icu_77::Locale", ptr, ptr, double, i8, i8, i8, i32, ptr, ptr, i8, ptr }
%"class.icu_77::DateFormat" = type { %"class.icu_77::Format", ptr, ptr, %"class.icu_77::EnumSet", i32 }
%"class.icu_77::Format" = type { %"class.icu_77::UObject", ptr, ptr }
%"class.icu_77::EnumSet" = type { i32 }
%"class.icu_77::Locale" = type <{ %"class.icu_77::UObject", [12 x i8], [6 x i8], [4 x i8], [2 x i8], i32, [4 x i8], ptr, [157 x i8], [3 x i8], ptr, i8, [7 x i8] }>

; Function Attrs: mustprogress uwtable
define linkonce_odr void @_ZN6icu_7712SharedObject8clearPtrINS_18SharedNumberFormatEEEvRPKT_(ptr noundef nonnull align 8 dereferenceable(8) %0) #1 comdat align 2 {
  %2 = alloca ptr, align 8
  store ptr %0, ptr %2, align 8, !tbaa !69
  %3 = load ptr, ptr %2, align 8, !tbaa !69
  %4 = load ptr, ptr %3, align 8, !tbaa !55
  %5 = icmp ne ptr %4, null
  br i1 %5, label %6, label %10

6:                                                ; preds = %1
  %7 = load ptr, ptr %2, align 8, !tbaa !69
  %8 = load ptr, ptr %7, align 8, !tbaa !55
  call void @_ZNK6icu_7712SharedObject9removeRefEv(ptr noundef nonnull align 8 dereferenceable(24) %8)
  %9 = load ptr, ptr %2, align 8, !tbaa !69
  store ptr null, ptr %9, align 8, !tbaa !55
  br label %10

10:                                               ; preds = %6, %1
  ret void
}

; Function Attrs: mustprogress nounwind uwtable
define linkonce_odr void @_ZN6icu_776number21SimpleNumberFormatterD2Ev(ptr noundef nonnull align 8 dereferenceable(32) %0) unnamed_addr #0 comdat align 2 personality ptr @__gxx_personality_v0 {
  %2 = alloca ptr, align 8
  store ptr %0, ptr %2, align 8, !tbaa !71
  %3 = load ptr, ptr %2, align 8
  invoke void @_ZN6icu_776number21SimpleNumberFormatter7cleanupEv(ptr noundef nonnull align 8 dereferenceable(32) %3)
          to label %4 unwind label %5

4:                                                ; preds = %1
  ret void

5:                                                ; preds = %1
  %6 = landingpad { ptr, i32 }
          catch ptr null
  %7 = extractvalue { ptr, i32 } %6, 0
  call void @__clang_call_terminate(ptr %7) #16
  unreachable
}

; Function Attrs: mustprogress uwtable
define internal void @_ZN6icu_77L26freeSharedNumberFormattersEPPKNS_18SharedNumberFormatE(ptr noundef %0) #1 {
  %2 = alloca ptr, align 8
  %3 = alloca i32, align 4
  store ptr %0, ptr %2, align 8, !tbaa !69
  call void @llvm.lifetime.start.p0(i64 4, ptr %3) #12
  store i32 0, ptr %3, align 4, !tbaa !14
  br label %4

4:                                                ; preds = %13, %1
  %5 = load i32, ptr %3, align 4, !tbaa !14
  %6 = icmp slt i32 %5, 38
  br i1 %6, label %8, label %7

7:                                                ; preds = %4
  call void @llvm.lifetime.end.p0(i64 4, ptr %3) #12
  br label %16

8:                                                ; preds = %4
  %9 = load ptr, ptr %2, align 8, !tbaa !69
  %10 = load i32, ptr %3, align 4, !tbaa !14
  %11 = sext i32 %10 to i64
  %12 = getelementptr inbounds ptr, ptr %9, i64 %11
  call void @_ZN6icu_7712SharedObject8clearPtrINS_18SharedNumberFormatEEEvRPKT_(ptr noundef nonnull align 8 dereferenceable(8) %12)
  br label %13

13:                                               ; preds = %8
  %14 = load i32, ptr %3, align 4, !tbaa !14
  %15 = add nsw i32 %14, 1
  store i32 %15, ptr %3, align 4, !tbaa !14
  br label %4, !llvm.loop !70

16:                                               ; preds = %7
  %17 = load ptr, ptr %2, align 8, !tbaa !69
  call void @uprv_free_77(ptr noundef %17)
  ret void
}

; Function Attrs: mustprogress nounwind uwtable
define void @_ZN6icu_7716SimpleDateFormatD2Ev(ptr noundef nonnull align 8 dereferenceable(528) %0) unnamed_addr #0 align 2 personality ptr @__gxx_personality_v0 {
  %2 = alloca ptr, align 8
  store ptr %0, ptr %2, align 8, !tbaa !23
  %3 = load ptr, ptr %2, align 8
  store ptr getelementptr inbounds inrange(-16, 320) ({ [42 x ptr] }, ptr @_ZTVN6icu_7716SimpleDateFormatE, i32 0, i32 0, i32 2), ptr %3, align 8, !tbaa !63
  %4 = getelementptr inbounds nuw %"class.icu_77::SimpleDateFormat", ptr %3, i32 0, i32 5
  %5 = load ptr, ptr %4, align 8, !tbaa !65
  %6 = icmp eq ptr %5, null
  br i1 %6, label %8, label %7

7:                                                ; preds = %1
  call void @_ZN6icu_7717DateFormatSymbolsD1Ev(ptr noundef nonnull align 8 dereferenceable(976) %5) #12
  call void @_ZN6icu_777UMemorydlEPv(ptr noundef %5) #12
  br label %8

8:                                                ; preds = %7, %1
  %9 = getelementptr inbounds nuw %"class.icu_77::SimpleDateFormat", ptr %3, i32 0, i32 12
  %10 = load ptr, ptr %9, align 8, !tbaa !35
  %11 = icmp ne ptr %10, null
  br i1 %11, label %12, label %16

12:                                               ; preds = %8
  %13 = getelementptr inbounds nuw %"class.icu_77::SimpleDateFormat", ptr %3, i32 0, i32 12
  %14 = load ptr, ptr %13, align 8, !tbaa !35
  invoke void @_ZN6icu_77L26freeSharedNumberFormattersEPPKNS_18SharedNumberFormatE(ptr noundef %14)
          to label %15 unwind label %42

15:                                               ; preds = %12
  br label %16

16:                                               ; preds = %15, %8
  %17 = getelementptr inbounds nuw %"class.icu_77::SimpleDateFormat", ptr %3, i32 0, i32 6
  %18 = load ptr, ptr %17, align 8, !tbaa !66
  %19 = icmp eq ptr %18, null
  br i1 %19, label %24, label %20

20:                                               ; preds = %16
  %21 = load ptr, ptr %18, align 8, !tbaa !63
  %22 = getelementptr inbounds ptr, ptr %21, i64 1
  %23 = load ptr, ptr %22, align 8
  call void %23(ptr noundef nonnull align 8 dereferenceable(1024) %18) #12
  br label %24

24:                                               ; preds = %20, %16
  %25 = getelementptr inbounds nuw %"class.icu_77::SimpleDateFormat", ptr %3, i32 0, i32 13
  %26 = load ptr, ptr %25, align 8, !tbaa !67
  %27 = icmp eq ptr %26, null
  br i1 %27, label %29, label %28

28:                                               ; preds = %24
  call void @_ZN6icu_776number21SimpleNumberFormatterD2Ev(ptr noundef nonnull align 8 dereferenceable(32) %26) #12
  call void @_ZN6icu_777UMemorydlEPv(ptr noundef %26) #12
  br label %29

29:                                               ; preds = %28, %24
  %30 = getelementptr inbounds nuw %"class.icu_77::SimpleDateFormat", ptr %3, i32 0, i32 15
  %31 = load ptr, ptr %30, align 8, !tbaa !68
  %32 = icmp eq ptr %31, null
  br i1 %32, label %37, label %33

33:                                               ; preds = %29
  %34 = load ptr, ptr %31, align 8, !tbaa !63
  %35 = getelementptr inbounds ptr, ptr %34, i64 1
  %36 = load ptr, ptr %35, align 8
  call void %36(ptr noundef nonnull align 8 dereferenceable(32) %31) #12
  br label %37

37:                                               ; preds = %33, %29
  %38 = getelementptr inbounds nuw %"class.icu_77::SimpleDateFormat", ptr %3, i32 0, i32 4
  call void @_ZN6icu_776LocaleD1Ev(ptr noundef nonnull align 8 dereferenceable(217) %38) #12
  %39 = getelementptr inbounds nuw %"class.icu_77::SimpleDateFormat", ptr %3, i32 0, i32 3
  call void @_ZN6icu_7713UnicodeStringD1Ev(ptr noundef nonnull align 8 dereferenceable(64) %39) #12
  %40 = getelementptr inbounds nuw %"class.icu_77::SimpleDateFormat", ptr %3, i32 0, i32 2
  call void @_ZN6icu_7713UnicodeStringD1Ev(ptr noundef nonnull align 8 dereferenceable(64) %40) #12
  %41 = getelementptr inbounds nuw %"class.icu_77::SimpleDateFormat", ptr %3, i32 0, i32 1
  call void @_ZN6icu_7713UnicodeStringD1Ev(ptr noundef nonnull align 8 dereferenceable(64) %41) #12
  call void @_ZN6icu_7710DateFormatD2Ev(ptr noundef nonnull align 8 dereferenceable(48) %3) #12
  ret void

42:                                               ; preds = %12
  %43 = landingpad { ptr, i32 }
          catch ptr null
  %44 = extractvalue { ptr, i32 } %43, 0
  call void @__clang_call_terminate(ptr %44) #16
  unreachable
}