; Function Attrs: mustprogress nounwind uwtable
define void @_ZN6icu_7716SimpleDateFormatD2Ev(ptr noundef nonnull align 8 dereferenceable(528) initializes((0, 8)) %0) unnamed_addr #0 align 2 personality ptr @__gxx_personality_v0 {
  store ptr getelementptr inbounds nuw inrange(-16, 320) (i8, ptr @_ZTVN6icu_7716SimpleDateFormatE, i64 16), ptr %0, align 8, !tbaa !44
  %2 = getelementptr inbounds nuw i8, ptr %0, i64 464
  %3 = load ptr, ptr %2, align 8, !tbaa !46
  %4 = icmp eq ptr %3, null
  br i1 %4, label %6, label %5

5:                                                ; preds = %1
  tail call void @_ZN6icu_7717DateFormatSymbolsD1Ev(ptr noundef nonnull align 8 dereferenceable(976) %3) #23
  tail call void @_ZN6icu_777UMemorydlEPv(ptr noundef nonnull %3) #23
  br label %6

6:                                                ; preds = %5, %1
  %7 = getelementptr inbounds nuw i8, ptr %0, i64 496
  %8 = load ptr, ptr %7, align 8, !tbaa !22
  %.not = icmp eq ptr %8, null
  br i1 %.not, label %_ZN6icu_77L26freeSharedNumberFormattersEPPKNS_18SharedNumberFormatE.exit, label %.preheader

9:                                                ; preds = %_ZN6icu_7712SharedObject8clearPtrINS_18SharedNumberFormatEEEvRPKT_.exit.i
  invoke void @uprv_free_77(ptr noundef nonnull %8)
          to label %_ZN6icu_77L26freeSharedNumberFormattersEPPKNS_18SharedNumberFormatE.exit unwind label %.loopexit.split-lp

.preheader:                                       ; preds = %6, %_ZN6icu_7712SharedObject8clearPtrINS_18SharedNumberFormatEEEvRPKT_.exit.i
  %indvars.iv.i = phi i64 [ %indvars.iv.next.i, %_ZN6icu_7712SharedObject8clearPtrINS_18SharedNumberFormatEEEvRPKT_.exit.i ], [ 0, %6 ]
  %10 = getelementptr inbounds nuw ptr, ptr %8, i64 %indvars.iv.i
  %11 = load ptr, ptr %10, align 8, !tbaa !42
  %.not.i.i = icmp eq ptr %11, null
  br i1 %.not.i.i, label %_ZN6icu_7712SharedObject8clearPtrINS_18SharedNumberFormatEEEvRPKT_.exit.i, label %12

12:                                               ; preds = %.preheader
  invoke void @_ZNK6icu_7712SharedObject9removeRefEv(ptr noundef nonnull align 8 dereferenceable(24) %11)
          to label %.noexc5 unwind label %.loopexit

.noexc5:                                          ; preds = %12
  store ptr null, ptr %10, align 8, !tbaa !42
  br label %_ZN6icu_7712SharedObject8clearPtrINS_18SharedNumberFormatEEEvRPKT_.exit.i

_ZN6icu_7712SharedObject8clearPtrINS_18SharedNumberFormatEEEvRPKT_.exit.i: ; preds = %.noexc5, %.preheader
  %indvars.iv.next.i = add nuw nsw i64 %indvars.iv.i, 1
  %exitcond.not.i = icmp eq i64 %indvars.iv.next.i, 38
  br i1 %exitcond.not.i, label %9, label %.preheader, !llvm.loop !47

_ZN6icu_77L26freeSharedNumberFormattersEPPKNS_18SharedNumberFormatE.exit: ; preds = %9, %6
  %13 = getelementptr inbounds nuw i8, ptr %0, i64 472
  %14 = load ptr, ptr %13, align 8, !tbaa !48
  %15 = icmp eq ptr %14, null
  br i1 %15, label %20, label %16

16:                                               ; preds = %_ZN6icu_77L26freeSharedNumberFormattersEPPKNS_18SharedNumberFormatE.exit
  %17 = load ptr, ptr %14, align 8, !tbaa !44
  %18 = getelementptr inbounds nuw i8, ptr %17, i64 8
  %19 = load ptr, ptr %18, align 8
  tail call void %19(ptr noundef nonnull align 8 dereferenceable(1024) %14) #23
  br label %20

20:                                               ; preds = %16, %_ZN6icu_77L26freeSharedNumberFormattersEPPKNS_18SharedNumberFormatE.exit
  %21 = getelementptr inbounds nuw i8, ptr %0, i64 504
  %22 = load ptr, ptr %21, align 8, !tbaa !49
  %23 = icmp eq ptr %22, null
  br i1 %23, label %28, label %24

24:                                               ; preds = %20
  invoke void @_ZN6icu_776number21SimpleNumberFormatter7cleanupEv(ptr noundef nonnull align 8 dereferenceable(32) %22)
          to label %_ZN6icu_776number21SimpleNumberFormatterD2Ev.exit unwind label %25

25:                                               ; preds = %24
  %26 = landingpad { ptr, i32 }
          catch ptr null
  %27 = extractvalue { ptr, i32 } %26, 0
  tail call void @__clang_call_terminate(ptr %27) #25
  unreachable

_ZN6icu_776number21SimpleNumberFormatterD2Ev.exit: ; preds = %24
  tail call void @_ZN6icu_777UMemorydlEPv(ptr noundef nonnull %22) #23
  br label %28

28:                                               ; preds = %_ZN6icu_776number21SimpleNumberFormatterD2Ev.exit, %20
  %29 = getelementptr inbounds nuw i8, ptr %0, i64 520
  %30 = load ptr, ptr %29, align 8, !tbaa !50
  %31 = icmp eq ptr %30, null
  br i1 %31, label %36, label %32

32:                                               ; preds = %28
  %33 = load ptr, ptr %30, align 8, !tbaa !44
  %34 = getelementptr inbounds nuw i8, ptr %33, i64 8
  %35 = load ptr, ptr %34, align 8
  tail call void %35(ptr noundef nonnull align 8 dereferenceable(32) %30) #23
  br label %36

36:                                               ; preds = %32, %28
  %37 = getelementptr inbounds nuw i8, ptr %0, i64 240
  tail call void @_ZN6icu_776LocaleD1Ev(ptr noundef nonnull align 8 dereferenceable(217) %37) #23
  %38 = getelementptr inbounds nuw i8, ptr %0, i64 176
  tail call void @_ZN6icu_7713UnicodeStringD1Ev(ptr noundef nonnull align 8 dereferenceable(64) %38) #23
  %39 = getelementptr inbounds nuw i8, ptr %0, i64 112
  tail call void @_ZN6icu_7713UnicodeStringD1Ev(ptr noundef nonnull align 8 dereferenceable(64) %39) #23
  %40 = getelementptr inbounds nuw i8, ptr %0, i64 48
  tail call void @_ZN6icu_7713UnicodeStringD1Ev(ptr noundef nonnull align 8 dereferenceable(64) %40) #23
  tail call void @_ZN6icu_7710DateFormatD2Ev(ptr noundef nonnull align 8 dereferenceable(48) %0) #23
  ret void

.loopexit:                                        ; preds = %12
  %lpad.loopexit = landingpad { ptr, i32 }
          catch ptr null
  br label %41

.loopexit.split-lp:                               ; preds = %9
  %lpad.loopexit.split-lp = landingpad { ptr, i32 }
          catch ptr null
  br label %41

41:                                               ; preds = %.loopexit.split-lp, %.loopexit
  %lpad.phi = phi { ptr, i32 } [ %lpad.loopexit, %.loopexit ], [ %lpad.loopexit.split-lp, %.loopexit.split-lp ]
  %42 = extractvalue { ptr, i32 } %lpad.phi, 0
  tail call void @__clang_call_terminate(ptr %42) #25
  unreachable
}